; Function Attrs: mustprogress uwtable
define internal fastcc { double, double } @_ZN32pxrInternal_v0_24__pxrReserved__L21_GetLayerOffsetToRootERKNS_10PcpNodeRefERKNS_9TfWeakPtrINS_8SdfLayerEEE(ptr noundef nonnull align 8 dereferenceable(16) %0, ptr noundef nonnull align 8 dereferenceable(16) %1) unnamed_addr #0 {
  %3 = alloca %"class.pxrInternal_v0_24__pxrReserved__::TfCallContext", align 8
  %4 = alloca %"class.pxrInternal_v0_24__pxrReserved__::SdfLayerOffset", align 8
  %5 = tail call noundef nonnull align 8 dereferenceable(8) ptr @_ZNK32pxrInternal_v0_24__pxrReserved__10PcpNodeRef12GetMapToRootEv(ptr noundef nonnull align 8 dereferenceable(16) %0)
  %6 = tail call noundef nonnull align 8 dereferenceable(56) ptr @_ZNK32pxrInternal_v0_24__pxrReserved__16PcpMapExpression8EvaluateEv(ptr noundef nonnull align 8 dereferenceable(8) %5)
  %7 = getelementptr inbounds nuw i8, ptr %6, i64 40
  call void @llvm.memcpy.p0.p0.i64(ptr noundef nonnull align 8 dereferenceable(16) %4, ptr noundef nonnull align 8 dereferenceable(16) %7, i64 16, i1 false)
  %8 = tail call noundef nonnull align 8 dereferenceable(8) ptr @_ZNK32pxrInternal_v0_24__pxrReserved__10PcpNodeRef13GetLayerStackEv(ptr noundef nonnull align 8 dereferenceable(16) %0)
  call void @llvm.lifetime.start.p0(i64 40, ptr nonnull %3)
  %9 = load ptr, ptr %8, align 8
  %.not.i = icmp eq ptr %9, null
  br i1 %.not.i, label %10, label %_ZNK32pxrInternal_v0_24__pxrReserved__8TfRefPtrINS_13PcpLayerStackEEptEv.exit

10:                                               ; preds = %2
  store ptr @.str.3, ptr %3, align 8
  %11 = getelementptr inbounds nuw i8, ptr %3, i64 8
  store ptr @__func__._ZNK32pxrInternal_v0_24__pxrReserved__8TfRefPtrINS_13PcpLayerStackEEptEv, ptr %11, align 8
  %12 = getelementptr inbounds nuw i8, ptr %3, i64 16
  store i64 936, ptr %12, align 8
  %13 = getelementptr inbounds nuw i8, ptr %3, i64 24
  store ptr @__PRETTY_FUNCTION__._ZNK32pxrInternal_v0_24__pxrReserved__8TfRefPtrINS_13PcpLayerStackEEptEv, ptr %13, align 8
  %14 = getelementptr inbounds nuw i8, ptr %3, i64 32
  store i8 0, ptr %14, align 8
  call void @_ZN32pxrInternal_v0_24__pxrReserved__40Tf_PostNullSmartPtrDereferenceFatalErrorERKNS_13TfCallContextEPKc(ptr noundef nonnull align 8 dereferenceable(33) %3, ptr noundef nonnull @_ZTSN32pxrInternal_v0_24__pxrReserved__8TfRefPtrINS_13PcpLayerStackEEE) #19
  unreachable

_ZNK32pxrInternal_v0_24__pxrReserved__8TfRefPtrINS_13PcpLayerStackEEptEv.exit: ; preds = %2
  call void @llvm.lifetime.end.p0(i64 40, ptr nonnull %3)
  %15 = tail call noundef ptr @_ZNK32pxrInternal_v0_24__pxrReserved__13PcpLayerStack22GetLayerOffsetForLayerERKNS_9TfWeakPtrINS_8SdfLayerEEE(ptr noundef nonnull align 8 dereferenceable(617) %9, ptr noundef nonnull align 8 dereferenceable(16) %1)
  %.not = icmp eq ptr %15, null
  br i1 %.not, label %_ZNK32pxrInternal_v0_24__pxrReserved__8TfRefPtrINS_13PcpLayerStackEEptEv.exit._crit_edge, label %16

_ZNK32pxrInternal_v0_24__pxrReserved__8TfRefPtrINS_13PcpLayerStackEEptEv.exit._crit_edge: ; preds = %_ZNK32pxrInternal_v0_24__pxrReserved__8TfRefPtrINS_13PcpLayerStackEEptEv.exit
  %.fca.0.load.pre = load double, ptr %4, align 8
  %.fca.1.gep.phi.trans.insert = getelementptr inbounds i8, ptr %4, i64 8
  %.fca.1.load.pre = load double, ptr %.fca.1.gep.phi.trans.insert, align 8
  br label %20

16:                                               ; preds = %_ZNK32pxrInternal_v0_24__pxrReserved__8TfRefPtrINS_13PcpLayerStackEEptEv.exit
  %17 = call { double, double } @_ZNK32pxrInternal_v0_24__pxrReserved__14SdfLayerOffsetmlERKS0_(ptr noundef nonnull align 8 dereferenceable(16) %4, ptr noundef nonnull align 8 dereferenceable(16) %15)
  %18 = extractvalue { double, double } %17, 0
  %19 = extractvalue { double, double } %17, 1
  br label %20

20:                                               ; preds = %_ZNK32pxrInternal_v0_24__pxrReserved__8TfRefPtrINS_13PcpLayerStackEEptEv.exit._crit_edge, %16
  %.fca.1.load = phi double [ %.fca.1.load.pre, %_ZNK32pxrInternal_v0_24__pxrReserved__8TfRefPtrINS_13PcpLayerStackEEptEv.exit._crit_edge ], [ %19, %16 ]
  %.fca.0.load = phi double [ %.fca.0.load.pre, %_ZNK32pxrInternal_v0_24__pxrReserved__8TfRefPtrINS_13PcpLayerStackEEptEv.exit._crit_edge ], [ %18, %16 ]
  %.fca.0.insert = insertvalue { double, double } poison, double %.fca.0.load, 0
  %.fca.1.insert = insertvalue { double, double } %.fca.0.insert, double %.fca.1.load, 1
  ret { double, double } %.fca.1.insert
}